target datalayout = "e-m:e-p270:32:32-p271:32:32-p272:64:64-i64:64-i128:128-f80:128-n8:16:32:64-S128"
target triple = "x86_64-pc-linux-gnu"

%struct._header_field_info = type { ptr, ptr, i32, i32, ptr, i64, ptr, i32, i32, i32, i32, ptr }
%struct.field_info = type { ptr, i32, i32, i32, i32, i32, i32, ptr, ptr, ptr, i32, i32 }

@.str.1 = private unnamed_addr constant [13 x i8] c"epan/proto.c\00", align 1
@.str.62 = private unnamed_addr constant [29 x i8] c"%s:%u: failed assertion \22%s\22\00", align 1
@.str.271 = private unnamed_addr constant [55 x i8] c"%s:%u: failed assertion \22DISSECTOR_ASSERT_NOT_REACHED\22\00", align 1
@.str.284 = private unnamed_addr constant [4 x i8] c" = \00", align 1
@.str.376 = private unnamed_addr constant [11 x i8] c"width >= 1\00", align 1

; Function Attrs: null_pointer_is_valid sspstrong uwtable
define internal ptr @other_decode_bitfield_value(ptr noundef %0, i64 noundef %1, i64 noundef %2, i32 noundef %3) #0 {
  %5 = alloca ptr, align 8
  %6 = alloca i64, align 8
  %7 = alloca i64, align 8
  %8 = alloca i32, align 4
  %9 = alloca i32, align 4
  %10 = alloca i64, align 8
  %11 = alloca ptr, align 8
  store ptr %0, ptr %5, align 8
  store i64 %1, ptr %6, align 8
  store i64 %2, ptr %7, align 8
  store i32 %3, ptr %8, align 4
  call void @llvm.lifetime.start.p0(i64 4, ptr %9) #24
  store i32 0, ptr %9, align 4
  call void @llvm.lifetime.start.p0(i64 8, ptr %10) #24
  call void @llvm.lifetime.start.p0(i64 8, ptr %11) #24
  %12 = load ptr, ptr %5, align 8
  store ptr %12, ptr %11, align 8
  %13 = load i32, ptr %8, align 4
  %14 = icmp sge i32 %13, 1
  br i1 %14, label %15, label %16

15:                                               ; preds = %4
  br label %18

16:                                               ; preds = %4
  call void (ptr, ...) @proto_report_dissector_bug(ptr noundef @.str.62, ptr noundef @.str.1, i32 noundef 5606, ptr noundef @.str.376) #27
  unreachable

17:                                               ; No predecessors!
  br label %18

18:                                               ; preds = %17, %15
  %19 = load i32, ptr %8, align 4
  %20 = sub i32 %19, 1
  %21 = zext i32 %20 to i64
  %22 = shl i64 1, %21
  store i64 %22, ptr %10, align 8
  br label %23

23:                                               ; preds = %59, %18
  %24 = load i64, ptr %7, align 8
  %25 = load i64, ptr %10, align 8
  %26 = and i64 %24, %25
  %27 = icmp ne i64 %26, 0
  br i1 %27, label %28, label %40

28:                                               ; preds = %23
  %29 = load i64, ptr %6, align 8
  %30 = load i64, ptr %10, align 8
  %31 = and i64 %29, %30
  %32 = icmp ne i64 %31, 0
  br i1 %32, label %33, label %36

33:                                               ; preds = %28
  %34 = load ptr, ptr %11, align 8
  %35 = getelementptr i8, ptr %34, i32 1
  store ptr %35, ptr %11, align 8
  store i8 49, ptr %34, align 1
  br label %39

36:                                               ; preds = %28
  %37 = load ptr, ptr %11, align 8
  %38 = getelementptr i8, ptr %37, i32 1
  store ptr %38, ptr %11, align 8
  store i8 48, ptr %37, align 1
  br label %39

39:                                               ; preds = %36, %33
  br label %43

40:                                               ; preds = %23
  %41 = load ptr, ptr %11, align 8
  %42 = getelementptr i8, ptr %41, i32 1
  store ptr %42, ptr %11, align 8
  store i8 46, ptr %41, align 1
  br label %43

43:                                               ; preds = %40, %39
  %44 = load i64, ptr %10, align 8
  %45 = lshr i64 %44, 1
  store i64 %45, ptr %10, align 8
  %46 = load i32, ptr %9, align 4
  %47 = add i32 %46, 1
  store i32 %47, ptr %9, align 4
  %48 = load i32, ptr %9, align 4
  %49 = load i32, ptr %8, align 4
  %50 = icmp sge i32 %48, %49
  br i1 %50, label %51, label %52

51:                                               ; preds = %43
  br label %60

52:                                               ; preds = %43
  %53 = load i32, ptr %9, align 4
  %54 = srem i32 %53, 4
  %55 = icmp eq i32 %54, 0
  br i1 %55, label %56, label %59

56:                                               ; preds = %52
  %57 = load ptr, ptr %11, align 8
  %58 = getelementptr i8, ptr %57, i32 1
  store ptr %58, ptr %11, align 8
  store i8 32, ptr %57, align 1
  br label %59

59:                                               ; preds = %56, %52
  br label %23

60:                                               ; preds = %51
  %61 = load ptr, ptr %11, align 8
  store i8 0, ptr %61, align 1
  %62 = load ptr, ptr %11, align 8
  call void @llvm.lifetime.end.p0(i64 8, ptr %11) #24
  call void @llvm.lifetime.end.p0(i64 8, ptr %10) #24
  call void @llvm.lifetime.end.p0(i64 4, ptr %9) #24
  ret ptr %62
}

; Function Attrs: inlinehint nounwind null_pointer_is_valid sspstrong uwtable
define internal i32 @ws_ctz(i64 noundef %0) #11 {
  %2 = alloca i64, align 8
  store i64 %0, ptr %2, align 8
  %3 = load i64, ptr %2, align 8
  %4 = call i64 @llvm.cttz.i64(i64 %3, i1 true)
  %5 = trunc i64 %4 to i32
  ret i32 %5
}

; Function Attrs: null_pointer_is_valid sspstrong uwtable
define internal i32 @hfinfo_type_bitwidth(i32 noundef %0) #0 {
  %2 = alloca i32, align 4
  %3 = alloca i32, align 4
  store i32 %0, ptr %2, align 4
  call void @llvm.lifetime.start.p0(i64 4, ptr %3) #24
  store i32 0, ptr %3, align 4
  %4 = load i32, ptr %2, align 4
  switch i32 %4, label %13 [
    i32 3, label %5
    i32 4, label %5
    i32 12, label %5
    i32 5, label %6
    i32 13, label %6
    i32 6, label %7
    i32 14, label %7
    i32 7, label %8
    i32 15, label %8
    i32 8, label %9
    i32 16, label %9
    i32 9, label %10
    i32 17, label %10
    i32 10, label %11
    i32 18, label %11
    i32 11, label %12
    i32 19, label %12
  ]

5:                                                ; preds = %1, %1, %1
  store i32 8, ptr %3, align 4
  br label %14

6:                                                ; preds = %1, %1
  store i32 16, ptr %3, align 4
  br label %14

7:                                                ; preds = %1, %1
  store i32 24, ptr %3, align 4
  br label %14

8:                                                ; preds = %1, %1
  store i32 32, ptr %3, align 4
  br label %14

9:                                                ; preds = %1, %1
  store i32 40, ptr %3, align 4
  br label %14

10:                                               ; preds = %1, %1
  store i32 48, ptr %3, align 4
  br label %14

11:                                               ; preds = %1, %1
  store i32 56, ptr %3, align 4
  br label %14

12:                                               ; preds = %1, %1
  store i32 64, ptr %3, align 4
  br label %14

13:                                               ; preds = %1
  call void (ptr, ...) @proto_report_dissector_bug(ptr noundef @.str.271, ptr noundef @.str.1, i32 noundef 10848) #27
  unreachable

14:                                               ; preds = %12, %11, %10, %9, %8, %7, %6, %5
  %15 = load i32, ptr %3, align 4
  call void @llvm.lifetime.end.p0(i64 4, ptr %3) #24
  ret i32 %15
}

; Function Attrs: null_pointer_is_valid sspstrong uwtable
define internal ptr @decode_bitfield_value(ptr noundef %0, i64 noundef %1, i64 noundef %2, i32 noundef %3) #0 {
  %5 = alloca ptr, align 8
  %6 = alloca i64, align 8
  %7 = alloca i64, align 8
  %8 = alloca i32, align 4
  %9 = alloca ptr, align 8
  store ptr %0, ptr %5, align 8
  store i64 %1, ptr %6, align 8
  store i64 %2, ptr %7, align 8
  store i32 %3, ptr %8, align 4
  call void @llvm.lifetime.start.p0(i64 8, ptr %9) #24
  %10 = load ptr, ptr %5, align 8
  %11 = load i64, ptr %6, align 8
  %12 = load i64, ptr %7, align 8
  %13 = load i32, ptr %8, align 4
  %14 = call ptr @other_decode_bitfield_value(ptr noundef %10, i64 noundef %11, i64 noundef %12, i32 noundef %13)
  store ptr %14, ptr %9, align 8
  %15 = load ptr, ptr %9, align 8
  %16 = call ptr @g_stpcpy(ptr noundef %15, ptr noundef @.str.284)
  store ptr %16, ptr %9, align 8
  %17 = load ptr, ptr %9, align 8
  call void @llvm.lifetime.end.p0(i64 8, ptr %9) #24
  ret ptr %17
}

; Function Attrs: null_pointer_is_valid sspstrong uwtable
define i32 @hfinfo_bitshift(ptr noundef %0) #0 {
  %2 = alloca ptr, align 8
  store ptr %0, ptr %2, align 8
  %3 = load ptr, ptr %2, align 8
  %4 = getelementptr inbounds nuw %struct._header_field_info, ptr %3, i32 0, i32 5
  %5 = load i64, ptr %4, align 8
  %6 = call i32 @ws_ctz(i64 noundef %5)
  ret i32 %6
}

; Function Attrs: null_pointer_is_valid sspstrong uwtable
define internal i32 @hfinfo_container_bitwidth(ptr noundef %0) #0 {
  %2 = alloca i32, align 4
  %3 = alloca ptr, align 8
  store ptr %0, ptr %3, align 8
  %4 = load ptr, ptr %3, align 8
  %5 = getelementptr inbounds nuw %struct._header_field_info, ptr %4, i32 0, i32 5
  %6 = load i64, ptr %5, align 8
  %7 = icmp ne i64 %6, 0
  br i1 %7, label %9, label %8

8:                                                ; preds = %1
  store i32 0, ptr %2, align 4
  br label %23

9:                                                ; preds = %1
  %10 = load ptr, ptr %3, align 8
  %11 = getelementptr inbounds nuw %struct._header_field_info, ptr %10, i32 0, i32 2
  %12 = load i32, ptr %11, align 8
  %13 = icmp eq i32 %12, 2
  br i1 %13, label %14, label %18

14:                                               ; preds = %9
  %15 = load ptr, ptr %3, align 8
  %16 = getelementptr inbounds nuw %struct._header_field_info, ptr %15, i32 0, i32 3
  %17 = load i32, ptr %16, align 4
  store i32 %17, ptr %2, align 4
  br label %23

18:                                               ; preds = %9
  %19 = load ptr, ptr %3, align 8
  %20 = getelementptr inbounds nuw %struct._header_field_info, ptr %19, i32 0, i32 2
  %21 = load i32, ptr %20, align 8
  %22 = call i32 @hfinfo_type_bitwidth(i32 noundef %21)
  store i32 %22, ptr %2, align 4
  br label %23

23:                                               ; preds = %18, %14, %8
  %24 = load i32, ptr %2, align 4
  ret i32 %24
}

; Function Attrs: null_pointer_is_valid sspstrong uwtable
define internal void @fill_label_boolean(ptr noundef %0, ptr noundef %1, ptr noundef %2) #0 {
  %4 = alloca ptr, align 8
  %5 = alloca ptr, align 8
  %6 = alloca ptr, align 8
  %7 = alloca ptr, align 8
  %8 = alloca i32, align 4
  %9 = alloca i32, align 4
  %10 = alloca i64, align 8
  %11 = alloca i64, align 8
  %12 = alloca ptr, align 8
  store ptr %0, ptr %4, align 8
  store ptr %1, ptr %5, align 8
  store ptr %2, ptr %6, align 8
  call void @llvm.lifetime.start.p0(i64 8, ptr %7) #24
  call void @llvm.lifetime.start.p0(i64 4, ptr %8) #24
  store i32 0, ptr %8, align 4
  call void @llvm.lifetime.start.p0(i64 4, ptr %9) #24
  call void @llvm.lifetime.start.p0(i64 8, ptr %10) #24
  call void @llvm.lifetime.start.p0(i64 8, ptr %11) #24
  call void @llvm.lifetime.start.p0(i64 8, ptr %12) #24
  %13 = load ptr, ptr %4, align 8
  %14 = getelementptr inbounds nuw %struct.field_info, ptr %13, i32 0, i32 0
  %15 = load ptr, ptr %14, align 8
  store ptr %15, ptr %12, align 8
  %16 = load ptr, ptr %4, align 8
  %17 = getelementptr inbounds nuw %struct.field_info, ptr %16, i32 0, i32 9
  %18 = load ptr, ptr %17, align 8
  %19 = call i64 @fvalue_get_uinteger64(ptr noundef %18)
  store i64 %19, ptr %11, align 8
  %20 = load ptr, ptr %12, align 8
  %21 = getelementptr inbounds nuw %struct._header_field_info, ptr %20, i32 0, i32 5
  %22 = load i64, ptr %21, align 8
  %23 = icmp ne i64 %22, 0
  br i1 %23, label %24, label %46

24:                                               ; preds = %3
  %25 = load ptr, ptr %12, align 8
  %26 = call i32 @hfinfo_container_bitwidth(ptr noundef %25)
  store i32 %26, ptr %9, align 4
  %27 = load i64, ptr %11, align 8
  store i64 %27, ptr %10, align 8
  %28 = load ptr, ptr %12, align 8
  %29 = call i32 @hfinfo_bitshift(ptr noundef %28)
  %30 = load i64, ptr %10, align 8
  %31 = zext i32 %29 to i64
  %32 = shl i64 %30, %31
  store i64 %32, ptr %10, align 8
  %33 = load ptr, ptr %5, align 8
  %34 = load i64, ptr %10, align 8
  %35 = load ptr, ptr %12, align 8
  %36 = getelementptr inbounds nuw %struct._header_field_info, ptr %35, i32 0, i32 5
  %37 = load i64, ptr %36, align 8
  %38 = load i32, ptr %9, align 4
  %39 = call ptr @decode_bitfield_value(ptr noundef %33, i64 noundef %34, i64 noundef %37, i32 noundef %38)
  store ptr %39, ptr %7, align 8
  %40 = load ptr, ptr %7, align 8
  %41 = load ptr, ptr %5, align 8
  %42 = ptrtoint ptr %40 to i64
  %43 = ptrtoint ptr %41 to i64
  %44 = sub i64 %42, %43
  %45 = trunc i64 %44 to i32
  store i32 %45, ptr %8, align 4
  br label %46

46:                                               ; preds = %24, %3
  %47 = load ptr, ptr %5, align 8
  %48 = load i32, ptr %8, align 4
  %49 = sext i32 %48 to i64
  %50 = load ptr, ptr %12, align 8
  %51 = load i64, ptr %11, align 8
  %52 = icmp ne i64 %51, 0
  %53 = xor i1 %52, true
  %54 = xor i1 %53, true
  %55 = load ptr, ptr %12, align 8
  %56 = getelementptr inbounds nuw %struct._header_field_info, ptr %55, i32 0, i32 4
  %57 = load ptr, ptr %56, align 8
  %58 = call ptr @tfs_get_string(i1 noundef zeroext %54, ptr noundef %57)
  %59 = load ptr, ptr %6, align 8
  %60 = call i64 @label_fill(ptr noundef %47, i64 noundef %49, ptr noundef %50, ptr noundef %58, ptr noundef %59)
  call void @llvm.lifetime.end.p0(i64 8, ptr %12) #24
  call void @llvm.lifetime.end.p0(i64 8, ptr %11) #24
  call void @llvm.lifetime.end.p0(i64 8, ptr %10) #24
  call void @llvm.lifetime.end.p0(i64 4, ptr %9) #24
  call void @llvm.lifetime.end.p0(i64 4, ptr %8) #24
  call void @llvm.lifetime.end.p0(i64 8, ptr %7) #24
  ret void
}