; Function Attrs: null_pointer_is_valid sspstrong uwtable
define internal fastcc void @fill_label_boolean(ptr readonly captures(none) %.0.val, ptr %.48.val, ptr noundef nonnull %0, ptr noundef captures(address_is_null) %1) unnamed_addr #0 {
  %3 = tail call i64 @fvalue_get_uinteger64(ptr noundef %.48.val)
  %4 = getelementptr inbounds nuw i8, ptr %.0.val, i64 32
  %5 = load i64, ptr %4, align 8
  %.not = icmp eq i64 %5, 0
  br i1 %.not, label %45, label %6

6:                                                ; preds = %2
  %7 = getelementptr inbounds nuw i8, ptr %.0.val, i64 16
  %8 = load i32, ptr %7, align 8
  switch i32 %8, label %16 [
    i32 2, label %hfinfo_container_bitwidth.exit
    i32 3, label %hfinfo_container_bitwidth.exit.thread
    i32 4, label %hfinfo_container_bitwidth.exit.thread
    i32 12, label %hfinfo_container_bitwidth.exit.thread
    i32 5, label %9
    i32 13, label %9
    i32 6, label %10
    i32 14, label %10
    i32 7, label %11
    i32 15, label %11
    i32 8, label %12
    i32 16, label %12
    i32 9, label %13
    i32 17, label %13
    i32 10, label %14
    i32 18, label %14
    i32 11, label %15
    i32 19, label %15
  ]

9:                                                ; preds = %6, %6
  br label %hfinfo_container_bitwidth.exit.thread

10:                                               ; preds = %6, %6
  br label %hfinfo_container_bitwidth.exit.thread

11:                                               ; preds = %6, %6
  br label %hfinfo_container_bitwidth.exit.thread

12:                                               ; preds = %6, %6
  br label %hfinfo_container_bitwidth.exit.thread

13:                                               ; preds = %6, %6
  br label %hfinfo_container_bitwidth.exit.thread

14:                                               ; preds = %6, %6
  br label %hfinfo_container_bitwidth.exit.thread

15:                                               ; preds = %6, %6
  br label %hfinfo_container_bitwidth.exit.thread

16:                                               ; preds = %6
  tail call void (ptr, ...) @proto_report_dissector_bug(ptr noundef nonnull @.str.271, ptr noundef nonnull @.str.1, i32 noundef 10848) #37
  unreachable

hfinfo_container_bitwidth.exit.thread:            ; preds = %15, %14, %13, %12, %11, %10, %9, %6, %6, %6
  %.0.i.ph = phi i32 [ 8, %6 ], [ 8, %6 ], [ 8, %6 ], [ 16, %9 ], [ 24, %10 ], [ 32, %11 ], [ 40, %12 ], [ 48, %13 ], [ 56, %14 ], [ 64, %15 ]
  %17 = tail call range(i64 0, 65) i64 @llvm.cttz.i64(i64 %5, i1 true)
  br label %23

hfinfo_container_bitwidth.exit:                   ; preds = %6
  %18 = getelementptr inbounds nuw i8, ptr %.0.val, i64 20
  %19 = load i32, ptr %18, align 4
  %20 = tail call range(i64 0, 65) i64 @llvm.cttz.i64(i64 %5, i1 true)
  %21 = icmp sgt i32 %19, 0
  br i1 %21, label %23, label %22

22:                                               ; preds = %hfinfo_container_bitwidth.exit
  tail call void (ptr, ...) @proto_report_dissector_bug(ptr noundef nonnull @.str.62, ptr noundef nonnull @.str.1, i32 noundef 5606, ptr noundef nonnull @.str.376) #37
  unreachable

23:                                               ; preds = %hfinfo_container_bitwidth.exit.thread, %hfinfo_container_bitwidth.exit
  %.pn = phi i64 [ %17, %hfinfo_container_bitwidth.exit.thread ], [ %20, %hfinfo_container_bitwidth.exit ]
  %.0.i2 = phi i32 [ %.0.i.ph, %hfinfo_container_bitwidth.exit.thread ], [ %19, %hfinfo_container_bitwidth.exit ]
  %24 = shl i64 %3, %.pn
  %25 = add nsw i32 %.0.i2, -1
  %26 = zext nneg i32 %25 to i64
  %27 = shl nuw i64 1, %26
  %28 = and i64 %27, %5
  %.not.i5.i = icmp eq i64 %28, 0
  %29 = and i64 %27, %24
  %.not21.i6.i = icmp eq i64 %29, 0
  %..i7.i = select i1 %.not21.i6.i, i8 48, i8 49
  %.sink.i8.i = select i1 %.not.i5.i, i8 46, i8 %..i7.i
  store i8 %.sink.i8.i, ptr %0, align 1
  %.1.i9.i = getelementptr i8, ptr %0, i64 1
  %exitcond.not.i10.i = icmp eq i32 %25, 0
  br i1 %exitcond.not.i10.i, label %decode_bitfield_value.exit, label %.lr.ph.i

.lr.ph.i:                                         ; preds = %23, %36
  %30 = phi i32 [ %39, %36 ], [ 1, %23 ]
  %.in.i = phi i64 [ %31, %36 ], [ %27, %23 ]
  %.1.i12.i = phi ptr [ %.1.i.i, %36 ], [ %.1.i9.i, %23 ]
  %.0.i11.i = phi ptr [ %.2.i.i, %36 ], [ %0, %23 ]
  %31 = lshr i64 %.in.i, 1
  %32 = and i32 %30, 3
  %33 = icmp eq i32 %32, 0
  br i1 %33, label %34, label %36

34:                                               ; preds = %.lr.ph.i
  %35 = getelementptr i8, ptr %.0.i11.i, i64 2
  store i8 32, ptr %.1.i12.i, align 1
  br label %36

36:                                               ; preds = %34, %.lr.ph.i
  %.2.i.i = phi ptr [ %35, %34 ], [ %.1.i12.i, %.lr.ph.i ]
  %37 = and i64 %31, %5
  %.not.i.i = icmp eq i64 %37, 0
  %38 = and i64 %31, %24
  %.not21.i.i = icmp eq i64 %38, 0
  %..i.i = select i1 %.not21.i.i, i8 48, i8 49
  %.sink.i.i = select i1 %.not.i.i, i8 46, i8 %..i.i
  store i8 %.sink.i.i, ptr %.2.i.i, align 1
  %.1.i.i = getelementptr i8, ptr %.2.i.i, i64 1
  %39 = add nuw nsw i32 %30, 1
  %exitcond.not.i.i = icmp eq i32 %30, %25
  br i1 %exitcond.not.i.i, label %decode_bitfield_value.exit, label %.lr.ph.i

decode_bitfield_value.exit:                       ; preds = %36, %23
  %.1.i.lcssa.i = phi ptr [ %.1.i9.i, %23 ], [ %.1.i.i, %36 ]
  store i8 0, ptr %.1.i.lcssa.i, align 1
  %40 = tail call ptr @g_stpcpy(ptr noundef %.1.i.lcssa.i, ptr noundef nonnull @.str.284)
  %41 = ptrtoint ptr %40 to i64
  %42 = ptrtoint ptr %0 to i64
  %43 = sub i64 %41, %42
  %sext = shl i64 %43, 32
  %44 = ashr exact i64 %sext, 32
  br label %45

45:                                               ; preds = %decode_bitfield_value.exit, %2
  %.0 = phi i64 [ %44, %decode_bitfield_value.exit ], [ 0, %2 ]
  %46 = icmp ne i64 %3, 0
  %47 = getelementptr inbounds nuw i8, ptr %.0.val, i64 24
  %48 = load ptr, ptr %47, align 8
  %49 = tail call ptr @tfs_get_string(i1 noundef zeroext %46, ptr noundef %48)
  tail call fastcc void @label_fill(ptr noundef nonnull %0, i64 noundef %.0, ptr noundef %.0.val, ptr noundef %49, ptr noundef %1)
  ret void
}